; Function Attrs: nounwind uwtable
define internal range(i32 -2147483648, 1) i32 @vaapi_encode_h265_write_sequence_header(ptr noundef %0, ptr noundef writeonly captures(none) %1, ptr noundef captures(none) %2) #3 {
  %4 = getelementptr inbounds nuw i8, ptr %0, i64 32
  %5 = load ptr, ptr %4, align 8, !tbaa !4
  %6 = getelementptr inbounds nuw i8, ptr %5, i64 7965752
  %7 = getelementptr inbounds nuw i8, ptr %5, i64 7965800
  %8 = load i32, ptr %7, align 8, !tbaa !203
  %.not = icmp eq i32 %8, 0
  br i1 %.not, label %17, label %9

9:                                                ; preds = %3
  %10 = getelementptr inbounds nuw i8, ptr %5, i64 7953864
  %11 = load i8, ptr %10, align 1, !tbaa !298
  %12 = zext i8 %11 to i32
  %13 = tail call i32 @ff_cbs_insert_unit_content(ptr noundef nonnull %6, i32 noundef -1, i32 noundef %12, ptr noundef nonnull %10, ptr noundef null) #9
  %14 = icmp slt i32 %13, 0
  br i1 %14, label %vaapi_encode_h265_add_nal.exit.thread, label %vaapi_encode_h265_add_nal.exit

vaapi_encode_h265_add_nal.exit.thread:            ; preds = %9
  %15 = load i8, ptr %10, align 1, !tbaa !298
  %16 = zext i8 %15 to i32
  tail call void (ptr, i32, ptr, ...) @av_log(ptr noundef nonnull %0, i32 noundef 16, ptr noundef nonnull @.str.105, i32 noundef %16) #9
  br label %vaapi_encode_h265_write_access_unit.exit

vaapi_encode_h265_add_nal.exit:                   ; preds = %9
  store i32 0, ptr %7, align 8, !tbaa !203
  br label %17

17:                                               ; preds = %vaapi_encode_h265_add_nal.exit, %3
  %18 = getelementptr inbounds nuw i8, ptr %5, i64 2024
  %19 = load i8, ptr %18, align 1, !tbaa !298
  %20 = zext i8 %19 to i32
  %21 = tail call i32 @ff_cbs_insert_unit_content(ptr noundef nonnull %6, i32 noundef -1, i32 noundef %20, ptr noundef nonnull %18, ptr noundef null) #9
  %22 = icmp slt i32 %21, 0
  br i1 %22, label %vaapi_encode_h265_add_nal.exit30.thread, label %vaapi_encode_h265_add_nal.exit30

vaapi_encode_h265_add_nal.exit30.thread:          ; preds = %17
  %23 = load i8, ptr %18, align 1, !tbaa !298
  %24 = zext i8 %23 to i32
  tail call void (ptr, i32, ptr, ...) @av_log(ptr noundef nonnull %0, i32 noundef 16, ptr noundef nonnull @.str.105, i32 noundef %24) #9
  br label %vaapi_encode_h265_write_access_unit.exit

vaapi_encode_h265_add_nal.exit30:                 ; preds = %17
  %25 = getelementptr inbounds nuw i8, ptr %5, i64 7926272
  %26 = load i8, ptr %25, align 1, !tbaa !298
  %27 = zext i8 %26 to i32
  %28 = tail call i32 @ff_cbs_insert_unit_content(ptr noundef nonnull %6, i32 noundef -1, i32 noundef %27, ptr noundef nonnull %25, ptr noundef null) #9
  %29 = icmp slt i32 %28, 0
  br i1 %29, label %vaapi_encode_h265_add_nal.exit32.thread, label %vaapi_encode_h265_add_nal.exit32

vaapi_encode_h265_add_nal.exit32.thread:          ; preds = %vaapi_encode_h265_add_nal.exit30
  %30 = load i8, ptr %25, align 1, !tbaa !298
  %31 = zext i8 %30 to i32
  tail call void (ptr, i32, ptr, ...) @av_log(ptr noundef nonnull %0, i32 noundef 16, ptr noundef nonnull @.str.105, i32 noundef %31) #9
  br label %vaapi_encode_h265_write_access_unit.exit

vaapi_encode_h265_add_nal.exit32:                 ; preds = %vaapi_encode_h265_add_nal.exit30
  %32 = getelementptr inbounds nuw i8, ptr %5, i64 7945792
  %33 = load i8, ptr %32, align 1, !tbaa !298
  %34 = zext i8 %33 to i32
  %35 = tail call i32 @ff_cbs_insert_unit_content(ptr noundef nonnull %6, i32 noundef -1, i32 noundef %34, ptr noundef nonnull %32, ptr noundef null) #9
  %36 = icmp slt i32 %35, 0
  br i1 %36, label %vaapi_encode_h265_add_nal.exit34.thread, label %vaapi_encode_h265_add_nal.exit34

vaapi_encode_h265_add_nal.exit34.thread:          ; preds = %vaapi_encode_h265_add_nal.exit32
  %37 = load i8, ptr %32, align 1, !tbaa !298
  %38 = zext i8 %37 to i32
  tail call void (ptr, i32, ptr, ...) @av_log(ptr noundef nonnull %0, i32 noundef 16, ptr noundef nonnull @.str.105, i32 noundef %38) #9
  br label %vaapi_encode_h265_write_access_unit.exit

vaapi_encode_h265_add_nal.exit34:                 ; preds = %vaapi_encode_h265_add_nal.exit32
  %39 = load ptr, ptr %4, align 8, !tbaa !4
  %40 = getelementptr inbounds nuw i8, ptr %39, i64 7965744
  %41 = load ptr, ptr %40, align 8, !tbaa !299
  %42 = tail call i32 @ff_cbs_write_fragment_data(ptr noundef %41, ptr noundef nonnull %6) #9
  %43 = icmp slt i32 %42, 0
  br i1 %43, label %44, label %45

44:                                               ; preds = %vaapi_encode_h265_add_nal.exit34
  tail call void (ptr, i32, ptr, ...) @av_log(ptr noundef nonnull %0, i32 noundef 16, ptr noundef nonnull @.str.106) #9
  br label %vaapi_encode_h265_write_access_unit.exit

45:                                               ; preds = %vaapi_encode_h265_add_nal.exit34
  %46 = load i64, ptr %2, align 8, !tbaa !226
  %47 = getelementptr inbounds nuw i8, ptr %5, i64 7965760
  %48 = load i64, ptr %47, align 8, !tbaa !300
  %49 = shl i64 %48, 3
  %50 = getelementptr inbounds nuw i8, ptr %5, i64 7965768
  %51 = load i64, ptr %50, align 8, !tbaa !301
  %52 = sub i64 %49, %51
  %53 = icmp ult i64 %46, %52
  br i1 %53, label %54, label %55

54:                                               ; preds = %45
  tail call void (ptr, i32, ptr, ...) @av_log(ptr noundef nonnull %0, i32 noundef 16, ptr noundef nonnull @.str.107, i64 noundef %46, i64 noundef %52) #9
  br label %vaapi_encode_h265_write_access_unit.exit

55:                                               ; preds = %45
  %56 = load ptr, ptr %6, align 8, !tbaa !302
  tail call void @llvm.memcpy.p0.p0.i64(ptr align 1 %1, ptr align 1 %56, i64 %48, i1 false)
  %57 = load i64, ptr %47, align 8, !tbaa !300
  %58 = shl i64 %57, 3
  %59 = load i64, ptr %50, align 8, !tbaa !301
  %60 = sub i64 %58, %59
  store i64 %60, ptr %2, align 8, !tbaa !226
  br label %vaapi_encode_h265_write_access_unit.exit

vaapi_encode_h265_write_access_unit.exit:         ; preds = %55, %54, %44, %vaapi_encode_h265_add_nal.exit34.thread, %vaapi_encode_h265_add_nal.exit32.thread, %vaapi_encode_h265_add_nal.exit30.thread, %vaapi_encode_h265_add_nal.exit.thread
  %.0 = phi i32 [ %13, %vaapi_encode_h265_add_nal.exit.thread ], [ %21, %vaapi_encode_h265_add_nal.exit30.thread ], [ %28, %vaapi_encode_h265_add_nal.exit32.thread ], [ %35, %vaapi_encode_h265_add_nal.exit34.thread ], [ %42, %44 ], [ -28, %54 ], [ 0, %55 ]
  tail call void @ff_cbs_fragment_reset(ptr noundef nonnull %6) #9
  ret i32 %.0
}